; Function Attrs: nounwind uwtable
define hidden noundef zeroext i1 @X11_GL_SwapWindow(ptr noundef readonly captures(none) %0, ptr noundef readonly captures(none) %1) local_unnamed_addr #0 {
  %3 = getelementptr inbounds nuw i8, ptr %1, i64 392
  %4 = load ptr, ptr %3, align 8
  %5 = getelementptr inbounds nuw i8, ptr %4, i64 336
  %6 = load ptr, ptr %5, align 8
  %7 = load ptr, ptr %6, align 8
  %8 = getelementptr inbounds nuw i8, ptr %0, i64 1664
  %9 = load ptr, ptr %8, align 8
  %10 = getelementptr inbounds nuw i8, ptr %9, i64 104
  %11 = load ptr, ptr %10, align 8
  %12 = getelementptr inbounds nuw i8, ptr %4, i64 8
  %13 = load i64, ptr %12, align 8
  tail call void %11(ptr noundef %7, i64 noundef %13) #6
  %14 = load ptr, ptr %4, align 8
  tail call void @X11_HandlePresent(ptr noundef %14) #6
  ret i1 true
}